target datalayout = "e-m:e-p270:32:32-p271:32:32-p272:64:64-i64:64-i128:128-f80:128-n8:16:32:64-S128"
target triple = "x86_64-pc-linux-gnu"

%"struct.std::__1::to_chars_result" = type { ptr, i32 }
%"struct.std::__1::__floating_decimal_64" = type { i64, i32 }

@.str = private unnamed_addr constant [6 x i8] c"0e+00\00", align 1

; Function Attrs: inlinehint mustprogress nounwind uwtable
define linkonce_odr hidden noundef i64 @_ZNSt3__113__ryu_umul128B8ne210000EmmPm(i64 noundef %0, i64 noundef %1, ptr noundef %2) #2 comdat {
  %4 = alloca i64, align 8
  %5 = alloca i64, align 8
  %6 = alloca ptr, align 8
  %7 = alloca i128, align 16
  store i64 %0, ptr %4, align 8, !tbaa !13
  store i64 %1, ptr %5, align 8, !tbaa !13
  store ptr %2, ptr %6, align 8, !tbaa !39
  call void @llvm.lifetime.start.p0(i64 16, ptr %7) #8
  %8 = load i64, ptr %4, align 8, !tbaa !13
  %9 = zext i64 %8 to i128
  %10 = load i64, ptr %5, align 8, !tbaa !13
  %11 = zext i64 %10 to i128
  %12 = mul i128 %9, %11
  store i128 %12, ptr %7, align 16, !tbaa !41
  %13 = load i128, ptr %7, align 16, !tbaa !41
  %14 = lshr i128 %13, 64
  %15 = trunc i128 %14 to i64
  %16 = load ptr, ptr %6, align 8, !tbaa !39
  store i64 %15, ptr %16, align 8, !tbaa !13
  %17 = load i128, ptr %7, align 16, !tbaa !41
  %18 = trunc i128 %17 to i64
  call void @llvm.lifetime.end.p0(i64 16, ptr %7) #8
  ret i64 %18
}

; Function Attrs: inlinehint mustprogress uwtable
define linkonce_odr hidden noundef i64 @_ZNSt3__17__umulhB8ne210000Emm(i64 noundef %0, i64 noundef %1) #5 comdat {
  %3 = alloca i64, align 8
  %4 = alloca i64, align 8
  %5 = alloca i64, align 8
  store i64 %0, ptr %3, align 8, !tbaa !13
  store i64 %1, ptr %4, align 8, !tbaa !13
  call void @llvm.lifetime.start.p0(i64 8, ptr %5) #8
  %6 = load i64, ptr %3, align 8, !tbaa !13
  %7 = load i64, ptr %4, align 8, !tbaa !13
  %8 = call noundef i64 @_ZNSt3__113__ryu_umul128B8ne210000EmmPm(i64 noundef %6, i64 noundef %7, ptr noundef %5)
  %9 = load i64, ptr %5, align 8, !tbaa !13
  call void @llvm.lifetime.end.p0(i64 8, ptr %5) #8
  ret i64 %9
}

; Function Attrs: inlinehint mustprogress uwtable
define linkonce_odr hidden noundef i64 @_ZNSt3__17__div10B8ne210000Em(i64 noundef %0) #5 comdat {
  %2 = alloca i64, align 8
  store i64 %0, ptr %2, align 8, !tbaa !13
  %3 = load i64, ptr %2, align 8, !tbaa !13
  %4 = call noundef i64 @_ZNSt3__17__umulhB8ne210000Emm(i64 noundef %3, i64 noundef -3689348814741910323)
  %5 = lshr i64 %4, 3
  ret i64 %5
}

; Function Attrs: inlinehint mustprogress nounwind uwtable
define linkonce_odr hidden noundef zeroext i1 @_ZNSt3__115__d2d_small_intB8ne210000EmjPNS_21__floating_decimal_64E(i64 noundef %0, i32 noundef %1, ptr noundef %2) #2 comdat {
  %4 = alloca i1, align 1
  %5 = alloca i64, align 8
  %6 = alloca i32, align 4
  %7 = alloca ptr, align 8
  %8 = alloca i64, align 8
  %9 = alloca i32, align 4
  %10 = alloca i32, align 4
  %11 = alloca i64, align 8
  %12 = alloca i64, align 8
  store i64 %0, ptr %5, align 8, !tbaa !13
  store i32 %1, ptr %6, align 4, !tbaa !20
  store ptr %2, ptr %7, align 8, !tbaa !32
  call void @llvm.lifetime.start.p0(i64 8, ptr %8) #8
  %13 = load i64, ptr %5, align 8, !tbaa !13
  %14 = or i64 4503599627370496, %13
  store i64 %14, ptr %8, align 8, !tbaa !13
  call void @llvm.lifetime.start.p0(i64 4, ptr %9) #8
  %15 = load i32, ptr %6, align 4, !tbaa !20
  %16 = sub nsw i32 %15, 1023
  %17 = sub nsw i32 %16, 52
  store i32 %17, ptr %9, align 4, !tbaa !20
  %18 = load i32, ptr %9, align 4, !tbaa !20
  %19 = icmp sgt i32 %18, 0
  br i1 %19, label %20, label %21

20:                                               ; preds = %3
  store i1 false, ptr %4, align 1
  store i32 1, ptr %10, align 4
  br label %48

21:                                               ; preds = %3
  %22 = load i32, ptr %9, align 4, !tbaa !20
  %23 = icmp slt i32 %22, -52
  br i1 %23, label %24, label %25

24:                                               ; preds = %21
  store i1 false, ptr %4, align 1
  store i32 1, ptr %10, align 4
  br label %48

25:                                               ; preds = %21
  call void @llvm.lifetime.start.p0(i64 8, ptr %11) #8
  %26 = load i32, ptr %9, align 4, !tbaa !20
  %27 = sub nsw i32 0, %26
  %28 = zext i32 %27 to i64
  %29 = shl i64 1, %28
  %30 = sub i64 %29, 1
  store i64 %30, ptr %11, align 8, !tbaa !13
  call void @llvm.lifetime.start.p0(i64 8, ptr %12) #8
  %31 = load i64, ptr %8, align 8, !tbaa !13
  %32 = load i64, ptr %11, align 8, !tbaa !13
  %33 = and i64 %31, %32
  store i64 %33, ptr %12, align 8, !tbaa !13
  %34 = load i64, ptr %12, align 8, !tbaa !13
  %35 = icmp ne i64 %34, 0
  br i1 %35, label %36, label %37

36:                                               ; preds = %25
  store i1 false, ptr %4, align 1
  store i32 1, ptr %10, align 4
  br label %47

37:                                               ; preds = %25
  %38 = load i64, ptr %8, align 8, !tbaa !13
  %39 = load i32, ptr %9, align 4, !tbaa !20
  %40 = sub nsw i32 0, %39
  %41 = zext i32 %40 to i64
  %42 = lshr i64 %38, %41
  %43 = load ptr, ptr %7, align 8, !tbaa !32
  %44 = getelementptr inbounds nuw %"struct.std::__1::__floating_decimal_64", ptr %43, i32 0, i32 0
  store i64 %42, ptr %44, align 8, !tbaa !26
  %45 = load ptr, ptr %7, align 8, !tbaa !32
  %46 = getelementptr inbounds nuw %"struct.std::__1::__floating_decimal_64", ptr %45, i32 0, i32 1
  store i32 0, ptr %46, align 8, !tbaa !28
  store i1 true, ptr %4, align 1
  store i32 1, ptr %10, align 4
  br label %47

47:                                               ; preds = %37, %36
  call void @llvm.lifetime.end.p0(i64 8, ptr %12) #8
  call void @llvm.lifetime.end.p0(i64 8, ptr %11) #8
  br label %48

48:                                               ; preds = %47, %24, %20
  call void @llvm.lifetime.end.p0(i64 4, ptr %9) #8
  call void @llvm.lifetime.end.p0(i64 8, ptr %8) #8
  %49 = load i1, ptr %4, align 1
  ret i1 %49
}

; Function Attrs: inlinehint mustprogress nounwind uwtable
define linkonce_odr hidden noundef i64 @_ZNSt3__116__double_to_bitsB8ne210000Ed(double noundef %0) #2 comdat {
  %2 = alloca double, align 8
  %3 = alloca i64, align 8
  store double %0, ptr %2, align 8, !tbaa !9
  call void @llvm.lifetime.start.p0(i64 8, ptr %3) #8
  store i64 0, ptr %3, align 8, !tbaa !13
  call void @llvm.memcpy.p0.p0.i64(ptr align 8 %3, ptr align 8 %2, i64 8, i1 false)
  %4 = load i64, ptr %3, align 8, !tbaa !13
  call void @llvm.lifetime.end.p0(i64 8, ptr %3) #8
  ret i64 %4
}

; Function Attrs: mustprogress uwtable
define hidden { ptr, i32 } @_ZNSt3__116__d2s_buffered_nB8ne210000EPcS0_dNS_12chars_formatE(ptr noundef %0, ptr noundef %1, double noundef %2, i32 noundef %3) #0 {
  %5 = alloca %"struct.std::__1::to_chars_result", align 8
  %6 = alloca ptr, align 8
  %7 = alloca ptr, align 8
  %8 = alloca double, align 8
  %9 = alloca i32, align 4
  %10 = alloca i64, align 8
  %11 = alloca i32, align 4
  %12 = alloca i64, align 8
  %13 = alloca i32, align 4
  %14 = alloca i32, align 4
  %15 = alloca %"struct.std::__1::__floating_decimal_64", align 8
  %16 = alloca i8, align 1
  %17 = alloca i64, align 8
  %18 = alloca i32, align 4
  %19 = alloca %"struct.std::__1::__floating_decimal_64", align 8
  %20 = alloca %"struct.std::__1::__floating_decimal_64", align 8
  store ptr %0, ptr %6, align 8, !tbaa !4
  store ptr %1, ptr %7, align 8, !tbaa !4
  store double %2, ptr %8, align 8, !tbaa !9
  store i32 %3, ptr %9, align 4, !tbaa !11
  call void @llvm.lifetime.start.p0(i64 8, ptr %10) #8
  %21 = load double, ptr %8, align 8, !tbaa !9
  %22 = call noundef i64 @_ZNSt3__116__double_to_bitsB8ne210000Ed(double noundef %21)
  store i64 %22, ptr %10, align 8, !tbaa !13
  %23 = load i64, ptr %10, align 8, !tbaa !13
  %24 = icmp eq i64 %23, 0
  br i1 %24, label %25, label %59

25:                                               ; preds = %4
  %26 = load i32, ptr %9, align 4, !tbaa !11
  %27 = icmp eq i32 %26, 1
  br i1 %27, label %28, label %45

28:                                               ; preds = %25
  %29 = load ptr, ptr %7, align 8, !tbaa !4
  %30 = load ptr, ptr %6, align 8, !tbaa !4
  %31 = ptrtoint ptr %29 to i64
  %32 = ptrtoint ptr %30 to i64
  %33 = sub i64 %31, %32
  %34 = icmp slt i64 %33, 5
  br i1 %34, label %35, label %39

35:                                               ; preds = %28
  %36 = getelementptr inbounds nuw %"struct.std::__1::to_chars_result", ptr %5, i32 0, i32 0
  %37 = load ptr, ptr %7, align 8, !tbaa !4
  store ptr %37, ptr %36, align 8, !tbaa !15
  %38 = getelementptr inbounds nuw %"struct.std::__1::to_chars_result", ptr %5, i32 0, i32 1
  store i32 75, ptr %38, align 8, !tbaa !18
  store i32 1, ptr %11, align 4
  br label %141

39:                                               ; preds = %28
  %40 = load ptr, ptr %6, align 8, !tbaa !4
  call void @llvm.memcpy.p0.p0.i64(ptr align 1 %40, ptr align 1 @.str, i64 5, i1 false)
  %41 = getelementptr inbounds nuw %"struct.std::__1::to_chars_result", ptr %5, i32 0, i32 0
  %42 = load ptr, ptr %6, align 8, !tbaa !4
  %43 = getelementptr inbounds i8, ptr %42, i64 5
  store ptr %43, ptr %41, align 8, !tbaa !15
  %44 = getelementptr inbounds nuw %"struct.std::__1::to_chars_result", ptr %5, i32 0, i32 1
  store i32 0, ptr %44, align 8, !tbaa !18
  store i32 1, ptr %11, align 4
  br label %141

45:                                               ; preds = %25
  %46 = load ptr, ptr %6, align 8, !tbaa !4
  %47 = load ptr, ptr %7, align 8, !tbaa !4
  %48 = icmp eq ptr %46, %47
  br i1 %48, label %49, label %53

49:                                               ; preds = %45
  %50 = getelementptr inbounds nuw %"struct.std::__1::to_chars_result", ptr %5, i32 0, i32 0
  %51 = load ptr, ptr %7, align 8, !tbaa !4
  store ptr %51, ptr %50, align 8, !tbaa !15
  %52 = getelementptr inbounds nuw %"struct.std::__1::to_chars_result", ptr %5, i32 0, i32 1
  store i32 75, ptr %52, align 8, !tbaa !18
  store i32 1, ptr %11, align 4
  br label %141

53:                                               ; preds = %45
  %54 = load ptr, ptr %6, align 8, !tbaa !4
  store i8 48, ptr %54, align 1, !tbaa !19
  %55 = getelementptr inbounds nuw %"struct.std::__1::to_chars_result", ptr %5, i32 0, i32 0
  %56 = load ptr, ptr %6, align 8, !tbaa !4
  %57 = getelementptr inbounds i8, ptr %56, i64 1
  store ptr %57, ptr %55, align 8, !tbaa !15
  %58 = getelementptr inbounds nuw %"struct.std::__1::to_chars_result", ptr %5, i32 0, i32 1
  store i32 0, ptr %58, align 8, !tbaa !18
  store i32 1, ptr %11, align 4
  br label %141

59:                                               ; preds = %4
  call void @llvm.lifetime.start.p0(i64 8, ptr %12) #8
  %60 = load i64, ptr %10, align 8, !tbaa !13
  %61 = and i64 %60, 4503599627370495
  store i64 %61, ptr %12, align 8, !tbaa !13
  call void @llvm.lifetime.start.p0(i64 4, ptr %13) #8
  %62 = load i64, ptr %10, align 8, !tbaa !13
  %63 = lshr i64 %62, 52
  %64 = trunc i64 %63 to i32
  store i32 %64, ptr %13, align 4, !tbaa !20
  %65 = load i32, ptr %9, align 4, !tbaa !11
  %66 = icmp eq i32 %65, 2
  br i1 %66, label %67, label %86

67:                                               ; preds = %59
  call void @llvm.lifetime.start.p0(i64 4, ptr %14) #8
  %68 = load i32, ptr %13, align 4, !tbaa !20
  %69 = sub nsw i32 %68, 1023
  %70 = sub nsw i32 %69, 52
  store i32 %70, ptr %14, align 4, !tbaa !20
  %71 = load i32, ptr %14, align 4, !tbaa !20
  %72 = icmp sgt i32 %71, 0
  br i1 %72, label %73, label %82

73:                                               ; preds = %67
  %74 = load ptr, ptr %6, align 8, !tbaa !4
  %75 = load ptr, ptr %7, align 8, !tbaa !4
  %76 = load double, ptr %8, align 8, !tbaa !9
  %77 = call { ptr, i32 } @_ZNSt3__120__d2fixed_buffered_nB8ne210000EPcS0_dj(ptr noundef %74, ptr noundef %75, double noundef %76, i32 noundef 0)
  %78 = getelementptr inbounds nuw { ptr, i32 }, ptr %5, i32 0, i32 0
  %79 = extractvalue { ptr, i32 } %77, 0
  store ptr %79, ptr %78, align 8
  %80 = getelementptr inbounds nuw { ptr, i32 }, ptr %5, i32 0, i32 1
  %81 = extractvalue { ptr, i32 } %77, 1
  store i32 %81, ptr %80, align 8
  store i32 1, ptr %11, align 4
  br label %83

82:                                               ; preds = %67
  store i32 0, ptr %11, align 4
  br label %83

83:                                               ; preds = %82, %73
  call void @llvm.lifetime.end.p0(i64 4, ptr %14) #8
  %84 = load i32, ptr %11, align 4
  switch i32 %84, label %140 [
    i32 0, label %85
  ]

85:                                               ; preds = %83
  br label %86

86:                                               ; preds = %85, %59
  call void @llvm.lifetime.start.p0(i64 16, ptr %15) #8
  call void @llvm.lifetime.start.p0(i64 1, ptr %16) #8
  %87 = load i64, ptr %12, align 8, !tbaa !13
  %88 = load i32, ptr %13, align 4, !tbaa !20
  %89 = call noundef zeroext i1 @_ZNSt3__115__d2d_small_intB8ne210000EmjPNS_21__floating_decimal_64E(i64 noundef %87, i32 noundef %88, ptr noundef %15)
  %90 = zext i1 %89 to i8
  store i8 %90, ptr %16, align 1, !tbaa !22
  %91 = load i8, ptr %16, align 1, !tbaa !22, !range !24, !noundef !25
  %92 = trunc i8 %91 to i1
  br i1 %92, label %93, label %118

93:                                               ; preds = %86
  br label %94

94:                                               ; preds = %116, %93
  call void @llvm.lifetime.start.p0(i64 8, ptr %17) #8
  %95 = getelementptr inbounds nuw %"struct.std::__1::__floating_decimal_64", ptr %15, i32 0, i32 0
  %96 = load i64, ptr %95, align 8, !tbaa !26
  %97 = call noundef i64 @_ZNSt3__17__div10B8ne210000Em(i64 noundef %96)
  store i64 %97, ptr %17, align 8, !tbaa !13
  call void @llvm.lifetime.start.p0(i64 4, ptr %18) #8
  %98 = getelementptr inbounds nuw %"struct.std::__1::__floating_decimal_64", ptr %15, i32 0, i32 0
  %99 = load i64, ptr %98, align 8, !tbaa !26
  %100 = trunc i64 %99 to i32
  %101 = load i64, ptr %17, align 8, !tbaa !13
  %102 = trunc i64 %101 to i32
  %103 = mul i32 10, %102
  %104 = sub i32 %100, %103
  store i32 %104, ptr %18, align 4, !tbaa !20
  %105 = load i32, ptr %18, align 4, !tbaa !20
  %106 = icmp ne i32 %105, 0
  br i1 %106, label %107, label %108

107:                                              ; preds = %94
  store i32 2, ptr %11, align 4
  br label %114

108:                                              ; preds = %94
  %109 = load i64, ptr %17, align 8, !tbaa !13
  %110 = getelementptr inbounds nuw %"struct.std::__1::__floating_decimal_64", ptr %15, i32 0, i32 0
  store i64 %109, ptr %110, align 8, !tbaa !26
  %111 = getelementptr inbounds nuw %"struct.std::__1::__floating_decimal_64", ptr %15, i32 0, i32 1
  %112 = load i32, ptr %111, align 8, !tbaa !28
  %113 = add nsw i32 %112, 1
  store i32 %113, ptr %111, align 8, !tbaa !28
  store i32 0, ptr %11, align 4
  br label %114

114:                                              ; preds = %108, %107
  call void @llvm.lifetime.end.p0(i64 4, ptr %18) #8
  call void @llvm.lifetime.end.p0(i64 8, ptr %17) #8
  %115 = load i32, ptr %11, align 4
  switch i32 %115, label %143 [
    i32 0, label %116
    i32 2, label %117
  ]

116:                                              ; preds = %114
  br label %94, !llvm.loop !29

117:                                              ; preds = %114
  br label %126

118:                                              ; preds = %86
  call void @llvm.lifetime.start.p0(i64 16, ptr %19) #8
  %119 = load i64, ptr %12, align 8, !tbaa !13
  %120 = load i32, ptr %13, align 4, !tbaa !20
  %121 = call { i64, i32 } @_ZNSt3__15__d2dB8ne210000Emj(i64 noundef %119, i32 noundef %120)
  %122 = getelementptr inbounds nuw { i64, i32 }, ptr %19, i32 0, i32 0
  %123 = extractvalue { i64, i32 } %121, 0
  store i64 %123, ptr %122, align 8
  %124 = getelementptr inbounds nuw { i64, i32 }, ptr %19, i32 0, i32 1
  %125 = extractvalue { i64, i32 } %121, 1
  store i32 %125, ptr %124, align 8
  call void @llvm.memcpy.p0.p0.i64(ptr align 8 %15, ptr align 8 %19, i64 16, i1 false), !tbaa.struct !31
  call void @llvm.lifetime.end.p0(i64 16, ptr %19) #8
  br label %126

126:                                              ; preds = %118, %117
  %127 = load ptr, ptr %6, align 8, !tbaa !4
  %128 = load ptr, ptr %7, align 8, !tbaa !4
  call void @llvm.memcpy.p0.p0.i64(ptr align 8 %20, ptr align 8 %15, i64 16, i1 false), !tbaa.struct !31
  %129 = load i32, ptr %9, align 4, !tbaa !11
  %130 = load double, ptr %8, align 8, !tbaa !9
  %131 = getelementptr inbounds nuw { i64, i32 }, ptr %20, i32 0, i32 0
  %132 = load i64, ptr %131, align 8
  %133 = getelementptr inbounds nuw { i64, i32 }, ptr %20, i32 0, i32 1
  %134 = load i32, ptr %133, align 8
  %135 = call { ptr, i32 } @_ZNSt3__110__to_charsB8ne210000EPcS0_NS_21__floating_decimal_64ENS_12chars_formatEd(ptr noundef %127, ptr noundef %128, i64 %132, i32 %134, i32 noundef %129, double noundef %130)
  %136 = getelementptr inbounds nuw { ptr, i32 }, ptr %5, i32 0, i32 0
  %137 = extractvalue { ptr, i32 } %135, 0
  store ptr %137, ptr %136, align 8
  %138 = getelementptr inbounds nuw { ptr, i32 }, ptr %5, i32 0, i32 1
  %139 = extractvalue { ptr, i32 } %135, 1
  store i32 %139, ptr %138, align 8
  store i32 1, ptr %11, align 4
  call void @llvm.lifetime.end.p0(i64 1, ptr %16) #8
  call void @llvm.lifetime.end.p0(i64 16, ptr %15) #8
  br label %140

140:                                              ; preds = %126, %83
  call void @llvm.lifetime.end.p0(i64 4, ptr %13) #8
  call void @llvm.lifetime.end.p0(i64 8, ptr %12) #8
  br label %141

141:                                              ; preds = %140, %53, %49, %39, %35
  call void @llvm.lifetime.end.p0(i64 8, ptr %10) #8
  %142 = load { ptr, i32 }, ptr %5, align 8
  ret { ptr, i32 } %142

143:                                              ; preds = %114
  unreachable
}